target datalayout = "e-m:e-p270:32:32-p271:32:32-p272:64:64-i64:64-i128:128-f80:128-n8:16:32:64-S128"
target triple = "x86_64-pc-linux-gnu"

%struct.WebPChunk = type { i32, i32, %struct.WebPData, ptr }
%struct.WebPData = type { ptr, i64 }

; Function Attrs: inlinehint nounwind uwtable
define internal i64 @SizeWithPadding(i64 noundef %0) #3 {
  %2 = alloca i64, align 8
  store i64 %0, ptr %2, align 8, !tbaa !31
  %3 = load i64, ptr %2, align 8, !tbaa !31
  %4 = add i64 %3, 1
  %5 = and i64 %4, 4294967294
  %6 = add i64 8, %5
  ret i64 %6
}

; Function Attrs: inlinehint nounwind uwtable
define internal i64 @ChunkDiskSize(ptr noundef %0) #3 {
  %2 = alloca ptr, align 8
  %3 = alloca i64, align 8
  store ptr %0, ptr %2, align 8, !tbaa !3
  call void @llvm.lifetime.start.p0(i64 8, ptr %3) #6
  %4 = load ptr, ptr %2, align 8, !tbaa !3
  %5 = getelementptr inbounds nuw %struct.WebPChunk, ptr %4, i32 0, i32 2
  %6 = getelementptr inbounds nuw %struct.WebPData, ptr %5, i32 0, i32 1
  %7 = load i64, ptr %6, align 8, !tbaa !41
  store i64 %7, ptr %3, align 8, !tbaa !31
  %8 = load i64, ptr %3, align 8, !tbaa !31
  %9 = call i64 @SizeWithPadding(i64 noundef %8)
  call void @llvm.lifetime.end.p0(i64 8, ptr %3) #6
  ret i64 %9
}

; Function Attrs: nounwind uwtable
define hidden i64 @ChunkListDiskSize(ptr noundef %0) #0 {
  %2 = alloca ptr, align 8
  %3 = alloca i64, align 8
  store ptr %0, ptr %2, align 8, !tbaa !3
  call void @llvm.lifetime.start.p0(i64 8, ptr %3) #6
  store i64 0, ptr %3, align 8, !tbaa !31
  br label %4

4:                                                ; preds = %7, %1
  %5 = load ptr, ptr %2, align 8, !tbaa !3
  %6 = icmp ne ptr %5, null
  br i1 %6, label %7, label %15

7:                                                ; preds = %4
  %8 = load ptr, ptr %2, align 8, !tbaa !3
  %9 = call i64 @ChunkDiskSize(ptr noundef %8)
  %10 = load i64, ptr %3, align 8, !tbaa !31
  %11 = add i64 %10, %9
  store i64 %11, ptr %3, align 8, !tbaa !31
  %12 = load ptr, ptr %2, align 8, !tbaa !3
  %13 = getelementptr inbounds nuw %struct.WebPChunk, ptr %12, i32 0, i32 3
  %14 = load ptr, ptr %13, align 8, !tbaa !15
  store ptr %14, ptr %2, align 8, !tbaa !3
  br label %4, !llvm.loop !43

15:                                               ; preds = %4
  %16 = load i64, ptr %3, align 8, !tbaa !31
  call void @llvm.lifetime.end.p0(i64 8, ptr %3) #6
  ret i64 %16
}