; Function Attrs: nofree norecurse nosync nounwind memory(read, inaccessiblemem: none) uwtable
define hidden i64 @ChunkListDiskSize(ptr noundef readonly captures(address_is_null) %0) local_unnamed_addr #8 {
  %.not5 = icmp eq ptr %0, null
  br i1 %.not5, label %._crit_edge, label %.lr.ph

.lr.ph:                                           ; preds = %1, %.lr.ph
  %.07 = phi i64 [ %6, %.lr.ph ], [ 0, %1 ]
  %.046 = phi ptr [ %8, %.lr.ph ], [ %0, %1 ]
  %2 = getelementptr i8, ptr %.046, i64 16
  %.04.val = load i64, ptr %2, align 8, !tbaa !35
  %3 = add i64 %.04.val, 1
  %4 = and i64 %3, 4294967294
  %5 = add i64 %.07, 8
  %6 = add i64 %5, %4
  %7 = getelementptr inbounds nuw i8, ptr %.046, i64 24
  %8 = load ptr, ptr %7, align 8, !tbaa !14
  %.not = icmp eq ptr %8, null
  br i1 %.not, label %._crit_edge, label %.lr.ph, !llvm.loop !38

._crit_edge:                                      ; preds = %.lr.ph, %1
  %.0.lcssa = phi i64 [ 0, %1 ], [ %6, %.lr.ph ]
  ret i64 %.0.lcssa
}